target datalayout = "e-m:e-p270:32:32-p271:32:32-p272:64:64-i64:64-i128:128-f80:128-n8:16:32:64-S128"
target triple = "x86_64-pc-linux-gnu"

%struct.LodePNGColorMode = type { i32, i32, ptr, i64, i32, i32, i32, i32 }
%struct.LodePNGInfo = type { i32, i32, i32, %struct.LodePNGColorMode, i32, i32, i32, i32, i64, ptr, ptr, i64, ptr, ptr, ptr, ptr, i32, ptr, i32, i32, %struct.LodePNGTime, i32, i32, i32, i32, i32, i32, i32, i32, i32, i32, i32, i32, i32, i32, i32, i32, i32, i32, ptr, ptr, i32, i32, i32, i32, i32, i32, i32, i32, i32, i32, i32, i32, i32, i32, i32, i32, i32, i32, i32, i32, i32, i32, i32, i32, i32, [3 x ptr], [3 x i64] }
%struct.LodePNGTime = type { i32, i32, i32, i32, i32, i32 }

; Function Attrs: mustprogress nounwind uwtable
define internal noundef i32 @_ZL14readChunk_mDCvP11LodePNGInfoPKhm(ptr noundef %0, ptr noundef %1, i64 noundef %2) #3 {
  %4 = alloca i32, align 4
  %5 = alloca ptr, align 8
  %6 = alloca ptr, align 8
  %7 = alloca i64, align 8
  store ptr %0, ptr %5, align 8, !tbaa !116
  store ptr %1, ptr %6, align 8, !tbaa !11
  store i64 %2, ptr %7, align 8, !tbaa !17
  %8 = load i64, ptr %7, align 8, !tbaa !17
  %9 = icmp ne i64 %8, 24
  br i1 %9, label %10, label %11

10:                                               ; preds = %3
  store i32 119, ptr %4, align 4
  br label %158

11:                                               ; preds = %3
  %12 = load ptr, ptr %5, align 8, !tbaa !116
  %13 = getelementptr inbounds nuw %struct.LodePNGInfo, ptr %12, i32 0, i32 47
  store i32 1, ptr %13, align 8, !tbaa !154
  %14 = load ptr, ptr %6, align 8, !tbaa !11
  %15 = getelementptr inbounds i8, ptr %14, i64 0
  %16 = load i8, ptr %15, align 1, !tbaa !45
  %17 = zext i8 %16 to i32
  %18 = mul i32 256, %17
  %19 = load ptr, ptr %6, align 8, !tbaa !11
  %20 = getelementptr inbounds i8, ptr %19, i64 1
  %21 = load i8, ptr %20, align 1, !tbaa !45
  %22 = zext i8 %21 to i32
  %23 = add i32 %18, %22
  %24 = load ptr, ptr %5, align 8, !tbaa !116
  %25 = getelementptr inbounds nuw %struct.LodePNGInfo, ptr %24, i32 0, i32 48
  store i32 %23, ptr %25, align 4, !tbaa !155
  %26 = load ptr, ptr %6, align 8, !tbaa !11
  %27 = getelementptr inbounds i8, ptr %26, i64 2
  %28 = load i8, ptr %27, align 1, !tbaa !45
  %29 = zext i8 %28 to i32
  %30 = mul i32 256, %29
  %31 = load ptr, ptr %6, align 8, !tbaa !11
  %32 = getelementptr inbounds i8, ptr %31, i64 3
  %33 = load i8, ptr %32, align 1, !tbaa !45
  %34 = zext i8 %33 to i32
  %35 = add i32 %30, %34
  %36 = load ptr, ptr %5, align 8, !tbaa !116
  %37 = getelementptr inbounds nuw %struct.LodePNGInfo, ptr %36, i32 0, i32 49
  store i32 %35, ptr %37, align 8, !tbaa !156
  %38 = load ptr, ptr %6, align 8, !tbaa !11
  %39 = getelementptr inbounds i8, ptr %38, i64 4
  %40 = load i8, ptr %39, align 1, !tbaa !45
  %41 = zext i8 %40 to i32
  %42 = mul i32 256, %41
  %43 = load ptr, ptr %6, align 8, !tbaa !11
  %44 = getelementptr inbounds i8, ptr %43, i64 5
  %45 = load i8, ptr %44, align 1, !tbaa !45
  %46 = zext i8 %45 to i32
  %47 = add i32 %42, %46
  %48 = load ptr, ptr %5, align 8, !tbaa !116
  %49 = getelementptr inbounds nuw %struct.LodePNGInfo, ptr %48, i32 0, i32 50
  store i32 %47, ptr %49, align 4, !tbaa !157
  %50 = load ptr, ptr %6, align 8, !tbaa !11
  %51 = getelementptr inbounds i8, ptr %50, i64 6
  %52 = load i8, ptr %51, align 1, !tbaa !45
  %53 = zext i8 %52 to i32
  %54 = mul i32 256, %53
  %55 = load ptr, ptr %6, align 8, !tbaa !11
  %56 = getelementptr inbounds i8, ptr %55, i64 7
  %57 = load i8, ptr %56, align 1, !tbaa !45
  %58 = zext i8 %57 to i32
  %59 = add i32 %54, %58
  %60 = load ptr, ptr %5, align 8, !tbaa !116
  %61 = getelementptr inbounds nuw %struct.LodePNGInfo, ptr %60, i32 0, i32 51
  store i32 %59, ptr %61, align 8, !tbaa !158
  %62 = load ptr, ptr %6, align 8, !tbaa !11
  %63 = getelementptr inbounds i8, ptr %62, i64 8
  %64 = load i8, ptr %63, align 1, !tbaa !45
  %65 = zext i8 %64 to i32
  %66 = mul i32 256, %65
  %67 = load ptr, ptr %6, align 8, !tbaa !11
  %68 = getelementptr inbounds i8, ptr %67, i64 9
  %69 = load i8, ptr %68, align 1, !tbaa !45
  %70 = zext i8 %69 to i32
  %71 = add i32 %66, %70
  %72 = load ptr, ptr %5, align 8, !tbaa !116
  %73 = getelementptr inbounds nuw %struct.LodePNGInfo, ptr %72, i32 0, i32 52
  store i32 %71, ptr %73, align 4, !tbaa !159
  %74 = load ptr, ptr %6, align 8, !tbaa !11
  %75 = getelementptr inbounds i8, ptr %74, i64 10
  %76 = load i8, ptr %75, align 1, !tbaa !45
  %77 = zext i8 %76 to i32
  %78 = mul i32 256, %77
  %79 = load ptr, ptr %6, align 8, !tbaa !11
  %80 = getelementptr inbounds i8, ptr %79, i64 11
  %81 = load i8, ptr %80, align 1, !tbaa !45
  %82 = zext i8 %81 to i32
  %83 = add i32 %78, %82
  %84 = load ptr, ptr %5, align 8, !tbaa !116
  %85 = getelementptr inbounds nuw %struct.LodePNGInfo, ptr %84, i32 0, i32 53
  store i32 %83, ptr %85, align 8, !tbaa !160
  %86 = load ptr, ptr %6, align 8, !tbaa !11
  %87 = getelementptr inbounds i8, ptr %86, i64 12
  %88 = load i8, ptr %87, align 1, !tbaa !45
  %89 = zext i8 %88 to i32
  %90 = mul i32 256, %89
  %91 = load ptr, ptr %6, align 8, !tbaa !11
  %92 = getelementptr inbounds i8, ptr %91, i64 13
  %93 = load i8, ptr %92, align 1, !tbaa !45
  %94 = zext i8 %93 to i32
  %95 = add i32 %90, %94
  %96 = load ptr, ptr %5, align 8, !tbaa !116
  %97 = getelementptr inbounds nuw %struct.LodePNGInfo, ptr %96, i32 0, i32 54
  store i32 %95, ptr %97, align 4, !tbaa !161
  %98 = load ptr, ptr %6, align 8, !tbaa !11
  %99 = getelementptr inbounds i8, ptr %98, i64 14
  %100 = load i8, ptr %99, align 1, !tbaa !45
  %101 = zext i8 %100 to i32
  %102 = mul i32 256, %101
  %103 = load ptr, ptr %6, align 8, !tbaa !11
  %104 = getelementptr inbounds i8, ptr %103, i64 15
  %105 = load i8, ptr %104, align 1, !tbaa !45
  %106 = zext i8 %105 to i32
  %107 = add i32 %102, %106
  %108 = load ptr, ptr %5, align 8, !tbaa !116
  %109 = getelementptr inbounds nuw %struct.LodePNGInfo, ptr %108, i32 0, i32 55
  store i32 %107, ptr %109, align 8, !tbaa !162
  %110 = load ptr, ptr %6, align 8, !tbaa !11
  %111 = getelementptr inbounds i8, ptr %110, i64 16
  %112 = load i8, ptr %111, align 1, !tbaa !45
  %113 = zext i8 %112 to i32
  %114 = mul i32 16777216, %113
  %115 = load ptr, ptr %6, align 8, !tbaa !11
  %116 = getelementptr inbounds i8, ptr %115, i64 17
  %117 = load i8, ptr %116, align 1, !tbaa !45
  %118 = zext i8 %117 to i32
  %119 = mul i32 65536, %118
  %120 = add i32 %114, %119
  %121 = load ptr, ptr %6, align 8, !tbaa !11
  %122 = getelementptr inbounds i8, ptr %121, i64 18
  %123 = load i8, ptr %122, align 1, !tbaa !45
  %124 = zext i8 %123 to i32
  %125 = mul i32 256, %124
  %126 = add i32 %120, %125
  %127 = load ptr, ptr %6, align 8, !tbaa !11
  %128 = getelementptr inbounds i8, ptr %127, i64 19
  %129 = load i8, ptr %128, align 1, !tbaa !45
  %130 = zext i8 %129 to i32
  %131 = add i32 %126, %130
  %132 = load ptr, ptr %5, align 8, !tbaa !116
  %133 = getelementptr inbounds nuw %struct.LodePNGInfo, ptr %132, i32 0, i32 56
  store i32 %131, ptr %133, align 4, !tbaa !163
  %134 = load ptr, ptr %6, align 8, !tbaa !11
  %135 = getelementptr inbounds i8, ptr %134, i64 20
  %136 = load i8, ptr %135, align 1, !tbaa !45
  %137 = zext i8 %136 to i32
  %138 = mul i32 16777216, %137
  %139 = load ptr, ptr %6, align 8, !tbaa !11
  %140 = getelementptr inbounds i8, ptr %139, i64 21
  %141 = load i8, ptr %140, align 1, !tbaa !45
  %142 = zext i8 %141 to i32
  %143 = mul i32 65536, %142
  %144 = add i32 %138, %143
  %145 = load ptr, ptr %6, align 8, !tbaa !11
  %146 = getelementptr inbounds i8, ptr %145, i64 22
  %147 = load i8, ptr %146, align 1, !tbaa !45
  %148 = zext i8 %147 to i32
  %149 = mul i32 256, %148
  %150 = add i32 %144, %149
  %151 = load ptr, ptr %6, align 8, !tbaa !11
  %152 = getelementptr inbounds i8, ptr %151, i64 23
  %153 = load i8, ptr %152, align 1, !tbaa !45
  %154 = zext i8 %153 to i32
  %155 = add i32 %150, %154
  %156 = load ptr, ptr %5, align 8, !tbaa !116
  %157 = getelementptr inbounds nuw %struct.LodePNGInfo, ptr %156, i32 0, i32 57
  store i32 %155, ptr %157, align 8, !tbaa !164
  store i32 0, ptr %4, align 4
  br label %158

158:                                              ; preds = %11, %10
  %159 = load i32, ptr %4, align 4
  ret i32 %159
}