; Function Attrs: mustprogress nofree norecurse nosync nounwind willreturn memory(argmem: readwrite) uwtable
define internal fastcc noundef range(i32 0, 120) i32 @_ZL14readChunk_mDCvP11LodePNGInfoPKhm(ptr noundef writeonly captures(none) %0, ptr noundef readonly captures(none) %1, i64 noundef range(i64 0, 2147483648) %2) unnamed_addr #13 {
  %.not = icmp eq i64 %2, 24
  br i1 %.not, label %4, label %115

4:                                                ; preds = %3
  %5 = getelementptr inbounds nuw i8, ptr %0, i64 296
  store i32 1, ptr %5, align 8, !tbaa !474
  %6 = load i8, ptr %1, align 1, !tbaa !18
  %7 = zext i8 %6 to i32
  %8 = shl nuw nsw i32 %7, 8
  %9 = getelementptr inbounds nuw i8, ptr %1, i64 1
  %10 = load i8, ptr %9, align 1, !tbaa !18
  %11 = zext i8 %10 to i32
  %12 = or disjoint i32 %8, %11
  %13 = getelementptr inbounds nuw i8, ptr %0, i64 300
  store i32 %12, ptr %13, align 4, !tbaa !475
  %14 = getelementptr inbounds nuw i8, ptr %1, i64 2
  %15 = load i8, ptr %14, align 1, !tbaa !18
  %16 = zext i8 %15 to i32
  %17 = shl nuw nsw i32 %16, 8
  %18 = getelementptr inbounds nuw i8, ptr %1, i64 3
  %19 = load i8, ptr %18, align 1, !tbaa !18
  %20 = zext i8 %19 to i32
  %21 = or disjoint i32 %17, %20
  %22 = getelementptr inbounds nuw i8, ptr %0, i64 304
  store i32 %21, ptr %22, align 8, !tbaa !476
  %23 = getelementptr inbounds nuw i8, ptr %1, i64 4
  %24 = load i8, ptr %23, align 1, !tbaa !18
  %25 = zext i8 %24 to i32
  %26 = shl nuw nsw i32 %25, 8
  %27 = getelementptr inbounds nuw i8, ptr %1, i64 5
  %28 = load i8, ptr %27, align 1, !tbaa !18
  %29 = zext i8 %28 to i32
  %30 = or disjoint i32 %26, %29
  %31 = getelementptr inbounds nuw i8, ptr %0, i64 308
  store i32 %30, ptr %31, align 4, !tbaa !477
  %32 = getelementptr inbounds nuw i8, ptr %1, i64 6
  %33 = load i8, ptr %32, align 1, !tbaa !18
  %34 = zext i8 %33 to i32
  %35 = shl nuw nsw i32 %34, 8
  %36 = getelementptr inbounds nuw i8, ptr %1, i64 7
  %37 = load i8, ptr %36, align 1, !tbaa !18
  %38 = zext i8 %37 to i32
  %39 = or disjoint i32 %35, %38
  %40 = getelementptr inbounds nuw i8, ptr %0, i64 312
  store i32 %39, ptr %40, align 8, !tbaa !478
  %41 = getelementptr inbounds nuw i8, ptr %1, i64 8
  %42 = load i8, ptr %41, align 1, !tbaa !18
  %43 = zext i8 %42 to i32
  %44 = shl nuw nsw i32 %43, 8
  %45 = getelementptr inbounds nuw i8, ptr %1, i64 9
  %46 = load i8, ptr %45, align 1, !tbaa !18
  %47 = zext i8 %46 to i32
  %48 = or disjoint i32 %44, %47
  %49 = getelementptr inbounds nuw i8, ptr %0, i64 316
  store i32 %48, ptr %49, align 4, !tbaa !479
  %50 = getelementptr inbounds nuw i8, ptr %1, i64 10
  %51 = load i8, ptr %50, align 1, !tbaa !18
  %52 = zext i8 %51 to i32
  %53 = shl nuw nsw i32 %52, 8
  %54 = getelementptr inbounds nuw i8, ptr %1, i64 11
  %55 = load i8, ptr %54, align 1, !tbaa !18
  %56 = zext i8 %55 to i32
  %57 = or disjoint i32 %53, %56
  %58 = getelementptr inbounds nuw i8, ptr %0, i64 320
  store i32 %57, ptr %58, align 8, !tbaa !480
  %59 = getelementptr inbounds nuw i8, ptr %1, i64 12
  %60 = load i8, ptr %59, align 1, !tbaa !18
  %61 = zext i8 %60 to i32
  %62 = shl nuw nsw i32 %61, 8
  %63 = getelementptr inbounds nuw i8, ptr %1, i64 13
  %64 = load i8, ptr %63, align 1, !tbaa !18
  %65 = zext i8 %64 to i32
  %66 = or disjoint i32 %62, %65
  %67 = getelementptr inbounds nuw i8, ptr %0, i64 324
  store i32 %66, ptr %67, align 4, !tbaa !481
  %68 = getelementptr inbounds nuw i8, ptr %1, i64 14
  %69 = load i8, ptr %68, align 1, !tbaa !18
  %70 = zext i8 %69 to i32
  %71 = shl nuw nsw i32 %70, 8
  %72 = getelementptr inbounds nuw i8, ptr %1, i64 15
  %73 = load i8, ptr %72, align 1, !tbaa !18
  %74 = zext i8 %73 to i32
  %75 = or disjoint i32 %71, %74
  %76 = getelementptr inbounds nuw i8, ptr %0, i64 328
  store i32 %75, ptr %76, align 8, !tbaa !482
  %77 = getelementptr inbounds nuw i8, ptr %1, i64 16
  %78 = load i8, ptr %77, align 1, !tbaa !18
  %79 = zext i8 %78 to i32
  %80 = shl nuw i32 %79, 24
  %81 = getelementptr inbounds nuw i8, ptr %1, i64 17
  %82 = load i8, ptr %81, align 1, !tbaa !18
  %83 = zext i8 %82 to i32
  %84 = shl nuw nsw i32 %83, 16
  %85 = or disjoint i32 %84, %80
  %86 = getelementptr inbounds nuw i8, ptr %1, i64 18
  %87 = load i8, ptr %86, align 1, !tbaa !18
  %88 = zext i8 %87 to i32
  %89 = shl nuw nsw i32 %88, 8
  %90 = or disjoint i32 %85, %89
  %91 = getelementptr inbounds nuw i8, ptr %1, i64 19
  %92 = load i8, ptr %91, align 1, !tbaa !18
  %93 = zext i8 %92 to i32
  %94 = or disjoint i32 %90, %93
  %95 = getelementptr inbounds nuw i8, ptr %0, i64 332
  store i32 %94, ptr %95, align 4, !tbaa !483
  %96 = getelementptr inbounds nuw i8, ptr %1, i64 20
  %97 = load i8, ptr %96, align 1, !tbaa !18
  %98 = zext i8 %97 to i32
  %99 = shl nuw i32 %98, 24
  %100 = getelementptr inbounds nuw i8, ptr %1, i64 21
  %101 = load i8, ptr %100, align 1, !tbaa !18
  %102 = zext i8 %101 to i32
  %103 = shl nuw nsw i32 %102, 16
  %104 = or disjoint i32 %103, %99
  %105 = getelementptr inbounds nuw i8, ptr %1, i64 22
  %106 = load i8, ptr %105, align 1, !tbaa !18
  %107 = zext i8 %106 to i32
  %108 = shl nuw nsw i32 %107, 8
  %109 = or disjoint i32 %104, %108
  %110 = getelementptr inbounds nuw i8, ptr %1, i64 23
  %111 = load i8, ptr %110, align 1, !tbaa !18
  %112 = zext i8 %111 to i32
  %113 = or disjoint i32 %109, %112
  %114 = getelementptr inbounds nuw i8, ptr %0, i64 336
  store i32 %113, ptr %114, align 8, !tbaa !484
  br label %115

115:                                              ; preds = %3, %4
  %.0 = phi i32 [ 0, %4 ], [ 119, %3 ]
  ret i32 %.0
}